target datalayout = "e-m:e-p270:32:32-p271:32:32-p272:64:64-i64:64-i128:128-f80:128-n8:16:32:64-S128"
target triple = "x86_64-unknown-linux-gnu"

%struct.ecc_point = type { [1 x %struct.sp_int], [1 x %struct.sp_int], [1 x %struct.sp_int] }
%struct.sp_int = type { i32, i32, [129 x i64] }

; Function Attrs: nounwind uwtable
define i32 @wc_ecc_is_point(ptr noundef %ecp, ptr noundef %a, ptr noundef %b, ptr noundef %prime) #0 {
entry:
  %ecp.addr = alloca ptr, align 8
  %a.addr = alloca ptr, align 8
  %b.addr = alloca ptr, align 8
  %prime.addr = alloca ptr, align 8
  %err = alloca i32, align 4
  store ptr %ecp, ptr %ecp.addr, align 8
  store ptr %a, ptr %a.addr, align 8
  store ptr %b, ptr %b.addr, align 8
  store ptr %prime, ptr %prime.addr, align 8
  store i32 0, ptr %err, align 4
  %0 = load ptr, ptr %ecp.addr, align 8
  %cmp = icmp eq ptr %0, null
  br i1 %cmp, label %if.then, label %lor.lhs.false

lor.lhs.false:                                    ; preds = %entry
  %1 = load ptr, ptr %a.addr, align 8
  %cmp1 = icmp eq ptr %1, null
  br i1 %cmp1, label %if.then, label %lor.lhs.false2

lor.lhs.false2:                                   ; preds = %lor.lhs.false
  %2 = load ptr, ptr %b.addr, align 8
  %cmp3 = icmp eq ptr %2, null
  br i1 %cmp3, label %if.then, label %lor.lhs.false4

lor.lhs.false4:                                   ; preds = %lor.lhs.false2
  %3 = load ptr, ptr %prime.addr, align 8
  %cmp5 = icmp eq ptr %3, null
  br i1 %cmp5, label %if.then, label %if.end

if.then:                                          ; preds = %lor.lhs.false4, %lor.lhs.false2, %lor.lhs.false, %entry
  store i32 -173, ptr %err, align 4
  br label %if.end

if.end:                                           ; preds = %if.then, %lor.lhs.false4
  %4 = load i32, ptr %err, align 4
  %cmp6 = icmp eq i32 %4, 0
  br i1 %cmp6, label %if.then7, label %if.end11

if.then7:                                         ; preds = %if.end
  %5 = load ptr, ptr %ecp.addr, align 8
  %x = getelementptr inbounds %struct.ecc_point, ptr %5, i32 0, i32 0
  %arraydecay = getelementptr inbounds [1 x %struct.sp_int], ptr %x, i64 0, i64 0
  %6 = load ptr, ptr %prime.addr, align 8
  %call = call i32 @sp_cmp(ptr noundef %arraydecay, ptr noundef %6)
  %cmp8 = icmp ne i32 %call, -1
  br i1 %cmp8, label %if.then9, label %if.end10

if.then9:                                         ; preds = %if.then7
  store i32 -217, ptr %err, align 4
  br label %if.end10

if.end10:                                         ; preds = %if.then9, %if.then7
  br label %if.end11

if.end11:                                         ; preds = %if.end10, %if.end
  %7 = load i32, ptr %err, align 4
  %cmp12 = icmp eq i32 %7, 0
  br i1 %cmp12, label %if.then13, label %if.end19

if.then13:                                        ; preds = %if.end11
  %8 = load ptr, ptr %ecp.addr, align 8
  %y = getelementptr inbounds %struct.ecc_point, ptr %8, i32 0, i32 1
  %arraydecay14 = getelementptr inbounds [1 x %struct.sp_int], ptr %y, i64 0, i64 0
  %9 = load ptr, ptr %prime.addr, align 8
  %call15 = call i32 @sp_cmp(ptr noundef %arraydecay14, ptr noundef %9)
  %cmp16 = icmp ne i32 %call15, -1
  br i1 %cmp16, label %if.then17, label %if.end18

if.then17:                                        ; preds = %if.then13
  store i32 -217, ptr %err, align 4
  br label %if.end18

if.end18:                                         ; preds = %if.then17, %if.then13
  br label %if.end19

if.end19:                                         ; preds = %if.end18, %if.end11
  %10 = load i32, ptr %err, align 4
  %cmp20 = icmp eq i32 %10, 0
  br i1 %cmp20, label %if.then21, label %if.end29

if.then21:                                        ; preds = %if.end19
  %11 = load ptr, ptr %ecp.addr, align 8
  %z = getelementptr inbounds %struct.ecc_point, ptr %11, i32 0, i32 2
  %arraydecay22 = getelementptr inbounds [1 x %struct.sp_int], ptr %z, i64 0, i64 0
  %used = getelementptr inbounds %struct.sp_int, ptr %arraydecay22, i32 0, i32 0
  %12 = load i32, ptr %used, align 8
  %cmp23 = icmp eq i32 %12, 1
  br i1 %cmp23, label %land.lhs.true, label %if.then27

land.lhs.true:                                    ; preds = %if.then21
  %13 = load ptr, ptr %ecp.addr, align 8
  %z24 = getelementptr inbounds %struct.ecc_point, ptr %13, i32 0, i32 2
  %arraydecay25 = getelementptr inbounds [1 x %struct.sp_int], ptr %z24, i64 0, i64 0
  %dp = getelementptr inbounds %struct.sp_int, ptr %arraydecay25, i32 0, i32 2
  %arrayidx = getelementptr inbounds [129 x i64], ptr %dp, i64 0, i64 0
  %14 = load i64, ptr %arrayidx, align 8
  %cmp26 = icmp eq i64 %14, 1
  br i1 %cmp26, label %if.end28, label %if.then27

if.then27:                                        ; preds = %land.lhs.true, %if.then21
  store i32 -170, ptr %err, align 4
  br label %if.end28

if.end28:                                         ; preds = %if.then27, %land.lhs.true
  br label %if.end29

if.end29:                                         ; preds = %if.end28, %if.end19
  %15 = load i32, ptr %err, align 4
  %cmp30 = icmp eq i32 %15, 0
  br i1 %cmp30, label %if.then31, label %if.end33

if.then31:                                        ; preds = %if.end29
  %16 = load ptr, ptr %ecp.addr, align 8
  %17 = load ptr, ptr %a.addr, align 8
  %18 = load ptr, ptr %b.addr, align 8
  %19 = load ptr, ptr %prime.addr, align 8
  %call32 = call i32 @_ecc_is_point(ptr noundef %16, ptr noundef %17, ptr noundef %18, ptr noundef %19)
  store i32 %call32, ptr %err, align 4
  br label %if.end33

if.end33:                                         ; preds = %if.then31, %if.end29
  %20 = load i32, ptr %err, align 4
  ret i32 %20
}