; Function Attrs: nounwind uwtable
define i32 @wc_ecc_is_point(ptr noundef %ecp, ptr noundef readnone %a, ptr noundef %b, ptr noundef %prime) local_unnamed_addr #2 {
entry:
  %cmp = icmp ne ptr %ecp, null
  %cmp1 = icmp ne ptr %a, null
  %or.cond.not18 = and i1 %cmp, %cmp1
  %cmp3 = icmp ne ptr %b, null
  %or.cond1.not17 = and i1 %or.cond.not18, %cmp3
  %cmp5 = icmp ne ptr %prime, null
  %or.cond2.not = and i1 %or.cond1.not17, %cmp5
  br i1 %or.cond2.not, label %if.then7, label %if.end33

if.then7:                                         ; preds = %entry
  %call = tail call i32 @sp_cmp(ptr noundef nonnull %ecp, ptr noundef nonnull %prime) #19
  %cmp8.not = icmp eq i32 %call, -1
  br i1 %cmp8.not, label %if.then13, label %if.end33

if.then13:                                        ; preds = %if.then7
  %y = getelementptr inbounds nuw i8, ptr %ecp, i64 1040
  %call15 = tail call i32 @sp_cmp(ptr noundef nonnull %y, ptr noundef nonnull %prime) #19
  %cmp16.not = icmp eq i32 %call15, -1
  br i1 %cmp16.not, label %if.then21, label %if.end33

if.then21:                                        ; preds = %if.then13
  %z = getelementptr inbounds nuw i8, ptr %ecp, i64 2080
  %0 = load i32, ptr %z, align 8
  %cmp23 = icmp eq i32 %0, 1
  br i1 %cmp23, label %land.lhs.true, label %if.end33

land.lhs.true:                                    ; preds = %if.then21
  %dp = getelementptr inbounds nuw i8, ptr %ecp, i64 2088
  %1 = load i64, ptr %dp, align 8
  %cmp26 = icmp eq i64 %1, 1
  br i1 %cmp26, label %if.then31, label %if.end33

if.then31:                                        ; preds = %land.lhs.true
  %call32 = tail call fastcc i32 @_ecc_is_point(ptr noundef nonnull %ecp, ptr noundef nonnull %b, ptr noundef nonnull %prime)
  br label %if.end33

if.end33:                                         ; preds = %entry, %if.then21, %land.lhs.true, %if.then7, %if.then13, %if.then31
  %err.4 = phi i32 [ %call32, %if.then31 ], [ -217, %if.then13 ], [ -217, %if.then7 ], [ -170, %land.lhs.true ], [ -170, %if.then21 ], [ -173, %entry ]
  ret i32 %err.4
}